; Function Attrs: nounwind uwtable
define void @Abc_NtkReverseTopoOrderTest(ptr noundef captures(none) initializes((424, 432)) %0) local_unnamed_addr #0 {
  %2 = alloca %struct.timespec, align 8
  %3 = alloca %struct.timespec, align 8
  %4 = alloca %struct.timespec, align 8
  %5 = alloca %struct.timespec, align 8
  call void @llvm.lifetime.start.p0(i64 16, ptr nonnull %5)
  %6 = call i32 @clock_gettime(i32 noundef 1, ptr noundef nonnull %5) #28
  %7 = icmp slt i32 %6, 0
  br i1 %7, label %Abc_Clock.exit, label %8

8:                                                ; preds = %1
  %9 = load i64, ptr %5, align 8
  %.neg26 = mul i64 %9, -1000000
  %10 = getelementptr inbounds nuw i8, ptr %5, i64 8
  %11 = load i64, ptr %10, align 8
  %.neg = sdiv i64 %11, -1000
  %.neg27 = add i64 %.neg, %.neg26
  br label %Abc_Clock.exit

Abc_Clock.exit:                                   ; preds = %1, %8
  %.0.i.neg = phi i64 [ %.neg27, %8 ], [ 1, %1 ]
  call void @llvm.lifetime.end.p0(i64 16, ptr nonnull %5)
  call void @Abc_NtkReverseTopoOrder(ptr noundef %0)
  %12 = getelementptr inbounds nuw i8, ptr %0, i64 424
  %13 = load ptr, ptr %12, align 8
  %14 = icmp eq ptr %13, null
  br i1 %14, label %Vec_IntFreeP.exit, label %15

15:                                               ; preds = %Abc_Clock.exit
  %16 = getelementptr inbounds nuw i8, ptr %13, i64 8
  %17 = load ptr, ptr %16, align 8
  %.not.i = icmp eq ptr %17, null
  br i1 %.not.i, label %.thread.i, label %18

18:                                               ; preds = %15
  call void @free(ptr noundef nonnull %17) #28
  %19 = load ptr, ptr %12, align 8
  %20 = getelementptr inbounds nuw i8, ptr %19, i64 8
  store ptr null, ptr %20, align 8
  %.pre.i = load ptr, ptr %12, align 8
  %.not9.i = icmp eq ptr %.pre.i, null
  br i1 %.not9.i, label %Vec_IntFreeP.exit, label %.thread.i

.thread.i:                                        ; preds = %18, %15
  %21 = phi ptr [ %.pre.i, %18 ], [ %13, %15 ]
  call void @free(ptr noundef nonnull %21) #28
  store ptr null, ptr %12, align 8
  br label %Vec_IntFreeP.exit

Vec_IntFreeP.exit:                                ; preds = %Abc_Clock.exit, %18, %.thread.i
  call void @llvm.lifetime.start.p0(i64 16, ptr nonnull %4)
  %22 = call i32 @clock_gettime(i32 noundef 1, ptr noundef nonnull %4) #28
  %23 = icmp slt i32 %22, 0
  br i1 %23, label %Abc_Clock.exit19, label %24

24:                                               ; preds = %Vec_IntFreeP.exit
  %25 = load i64, ptr %4, align 8
  %26 = mul nsw i64 %25, 1000000
  %27 = getelementptr inbounds nuw i8, ptr %4, i64 8
  %28 = load i64, ptr %27, align 8
  %29 = sdiv i64 %28, 1000
  %30 = add nsw i64 %29, %26
  br label %Abc_Clock.exit19

Abc_Clock.exit19:                                 ; preds = %Vec_IntFreeP.exit, %24
  %.0.i18 = phi i64 [ %30, %24 ], [ -1, %Vec_IntFreeP.exit ]
  call void @llvm.lifetime.end.p0(i64 16, ptr nonnull %4)
  %31 = add i64 %.0.i18, %.0.i.neg
  call void (i32, ptr, ...) @Abc_Print(i32 poison, ptr noundef nonnull @.str.52, ptr noundef nonnull @.str.23)
  %32 = sitofp i64 %31 to double
  %33 = fdiv double %32, 1.000000e+06
  call void (i32, ptr, ...) @Abc_Print(i32 poison, ptr noundef nonnull @.str.53, double noundef %33)
  call void @llvm.lifetime.start.p0(i64 16, ptr nonnull %3)
  %34 = call i32 @clock_gettime(i32 noundef 1, ptr noundef nonnull %3) #28
  %35 = icmp slt i32 %34, 0
  br i1 %35, label %Abc_Clock.exit21, label %36

36:                                               ; preds = %Abc_Clock.exit19
  %37 = load i64, ptr %3, align 8
  %.neg29 = mul i64 %37, -1000000
  %38 = getelementptr inbounds nuw i8, ptr %3, i64 8
  %39 = load i64, ptr %38, align 8
  %.neg28 = sdiv i64 %39, -1000
  %.neg30 = add i64 %.neg28, %.neg29
  br label %Abc_Clock.exit21

Abc_Clock.exit21:                                 ; preds = %Abc_Clock.exit19, %36
  %.0.i20.neg = phi i64 [ %.neg30, %36 ], [ 1, %Abc_Clock.exit19 ]
  call void @llvm.lifetime.end.p0(i64 16, ptr nonnull %3)
  %40 = call noalias dereferenceable_or_null(16) ptr @malloc(i64 noundef 16) #30
  %41 = getelementptr inbounds nuw i8, ptr %40, i64 4
  store i32 0, ptr %41, align 4
  store i32 1000, ptr %40, align 8
  %42 = call noalias dereferenceable_or_null(4000) ptr @malloc(i64 noundef 4000) #30
  %43 = getelementptr inbounds nuw i8, ptr %40, i64 8
  store ptr %42, ptr %43, align 8
  %44 = getelementptr inbounds nuw i8, ptr %0, i64 32
  %45 = load ptr, ptr %44, align 8
  %46 = getelementptr i8, ptr %45, i64 4
  %.val31 = load i32, ptr %46, align 4
  %47 = icmp sgt i32 %.val31, 0
  br i1 %47, label %.lr.ph, label %.critedge

.lr.ph:                                           ; preds = %Abc_Clock.exit21
  %48 = getelementptr inbounds nuw i8, ptr %0, i64 232
  %49 = getelementptr inbounds nuw i8, ptr %0, i64 224
  %50 = getelementptr inbounds nuw i8, ptr %0, i64 228
  %51 = getelementptr inbounds nuw i8, ptr %0, i64 216
  br label %52

52:                                               ; preds = %.lr.ph, %76
  %53 = phi ptr [ %45, %.lr.ph ], [ %77, %76 ]
  %indvars.iv = phi i64 [ 0, %.lr.ph ], [ %indvars.iv.next, %76 ]
  %.val33 = phi i32 [ %.val31, %.lr.ph ], [ %.val, %76 ]
  %54 = getelementptr i8, ptr %53, i64 8
  %.val16.val = load ptr, ptr %54, align 8
  %55 = getelementptr inbounds nuw ptr, ptr %.val16.val, i64 %indvars.iv
  %56 = load ptr, ptr %55, align 8
  %57 = icmp eq ptr %56, null
  br i1 %57, label %76, label %58

58:                                               ; preds = %52
  %59 = getelementptr i8, ptr %56, i64 20
  %.val17 = load i32, ptr %59, align 4
  %60 = and i32 %.val17, 15
  %.not = icmp eq i32 %60, 7
  br i1 %.not, label %61, label %76

61:                                               ; preds = %58
  store i32 0, ptr %41, align 4
  %62 = load ptr, ptr %48, align 8
  %.not.i22 = icmp eq ptr %62, null
  br i1 %.not.i22, label %63, label %Abc_NtkIncrementTravId.exit

63:                                               ; preds = %61
  %64 = add nsw i32 %.val33, 500
  %65 = load i32, ptr %49, align 8
  %.not.i.i.i = icmp slt i32 %65, %64
  br i1 %.not.i.i.i, label %66, label %Vec_IntGrow.exit.i.i

66:                                               ; preds = %63
  %67 = sext i32 %64 to i64
  %68 = shl nsw i64 %67, 2
  %69 = call noalias ptr @malloc(i64 noundef %68) #30
  store ptr %69, ptr %48, align 8
  store i32 %64, ptr %49, align 8
  br label %Vec_IntGrow.exit.i.i

Vec_IntGrow.exit.i.i:                             ; preds = %66, %63
  %70 = icmp sgt i32 %.val33, -500
  br i1 %70, label %.lr.ph.i.i, label %Vec_IntFill.exit.i

.lr.ph.i.i:                                       ; preds = %Vec_IntGrow.exit.i.i
  %wide.trip.count.i.i = zext nneg i32 %64 to i64
  br label %71

71:                                               ; preds = %71, %.lr.ph.i.i
  %indvars.iv.i.i = phi i64 [ 0, %.lr.ph.i.i ], [ %indvars.iv.next.i.i, %71 ]
  %72 = load ptr, ptr %48, align 8
  %73 = getelementptr inbounds nuw i32, ptr %72, i64 %indvars.iv.i.i
  store i32 0, ptr %73, align 4
  %indvars.iv.next.i.i = add nuw nsw i64 %indvars.iv.i.i, 1
  %exitcond.not.i.i = icmp eq i64 %indvars.iv.next.i.i, %wide.trip.count.i.i
  br i1 %exitcond.not.i.i, label %Vec_IntFill.exit.i, label %71, !llvm.loop !50

Vec_IntFill.exit.i:                               ; preds = %71, %Vec_IntGrow.exit.i.i
  store i32 %64, ptr %50, align 4
  br label %Abc_NtkIncrementTravId.exit

Abc_NtkIncrementTravId.exit:                      ; preds = %61, %Vec_IntFill.exit.i
  %74 = load i32, ptr %51, align 8
  %75 = add nsw i32 %74, 1
  store i32 %75, ptr %51, align 8
  call void @Abc_NtkReverse_rec(ptr noundef nonnull %56, ptr noundef nonnull %40)
  %.pre = load ptr, ptr %44, align 8
  br label %76

76:                                               ; preds = %Abc_NtkIncrementTravId.exit, %58, %52
  %77 = phi ptr [ %.pre, %Abc_NtkIncrementTravId.exit ], [ %53, %58 ], [ %53, %52 ]
  %indvars.iv.next = add nuw nsw i64 %indvars.iv, 1
  %78 = getelementptr i8, ptr %77, i64 4
  %.val = load i32, ptr %78, align 4
  %79 = sext i32 %.val to i64
  %80 = icmp slt i64 %indvars.iv.next, %79
  br i1 %80, label %52, label %.critedge.loopexit, !llvm.loop !130

.critedge.loopexit:                               ; preds = %76
  %.pre35 = load ptr, ptr %43, align 8
  br label %.critedge

.critedge:                                        ; preds = %.critedge.loopexit, %Abc_Clock.exit21
  %81 = phi ptr [ %.pre35, %.critedge.loopexit ], [ %42, %Abc_Clock.exit21 ]
  %.not.i23 = icmp eq ptr %81, null
  br i1 %.not.i23, label %Vec_IntFree.exit, label %82

82:                                               ; preds = %.critedge
  call void @free(ptr noundef nonnull %81) #28
  br label %Vec_IntFree.exit

Vec_IntFree.exit:                                 ; preds = %.critedge, %82
  call void @free(ptr noundef nonnull %40) #28
  call void @llvm.lifetime.start.p0(i64 16, ptr nonnull %2)
  %83 = call i32 @clock_gettime(i32 noundef 1, ptr noundef nonnull %2) #28
  %84 = icmp slt i32 %83, 0
  br i1 %84, label %Abc_Clock.exit25, label %85

85:                                               ; preds = %Vec_IntFree.exit
  %86 = load i64, ptr %2, align 8
  %87 = mul nsw i64 %86, 1000000
  %88 = getelementptr inbounds nuw i8, ptr %2, i64 8
  %89 = load i64, ptr %88, align 8
  %90 = sdiv i64 %89, 1000
  %91 = add nsw i64 %90, %87
  br label %Abc_Clock.exit25

Abc_Clock.exit25:                                 ; preds = %Vec_IntFree.exit, %85
  %.0.i24 = phi i64 [ %91, %85 ], [ -1, %Vec_IntFree.exit ]
  call void @llvm.lifetime.end.p0(i64 16, ptr nonnull %2)
  %92 = add i64 %.0.i24, %.0.i20.neg
  call void (i32, ptr, ...) @Abc_Print(i32 poison, ptr noundef nonnull @.str.52, ptr noundef nonnull @.str.23)
  %93 = sitofp i64 %92 to double
  %94 = fdiv double %93, 1.000000e+06
  call void (i32, ptr, ...) @Abc_Print(i32 poison, ptr noundef nonnull @.str.53, double noundef %94)
  ret void
}